; Function Attrs: mustprogress nofree norecurse nosync nounwind willreturn memory(argmem: readwrite) uwtable
define internal range(i32 -1, 60) i32 @element5(ptr noundef captures(none) %0, i32 noundef %1, ptr readnone captures(none) %2, ptr readnone captures(none) %3, ptr readnone captures(none) %4) #2 {
  switch i32 %1, label %9 [
    i32 15, label %common.exit
    i32 36, label %6
    i32 21, label %8
  ]

6:                                                ; preds = %5
  store ptr @declClose, ptr %0, align 8, !tbaa !3
  %7 = getelementptr inbounds nuw i8, ptr %0, i64 12
  store i32 39, ptr %7, align 4, !tbaa !15
  br label %common.exit

8:                                                ; preds = %5
  store ptr @element4, ptr %0, align 8, !tbaa !3
  br label %common.exit

9:                                                ; preds = %5
  %10 = getelementptr inbounds nuw i8, ptr %0, i64 20
  %11 = load i32, ptr %10, align 4, !tbaa !9
  %12 = icmp eq i32 %11, 0
  %13 = icmp eq i32 %1, 28
  %or.cond.i = and i1 %13, %12
  br i1 %or.cond.i, label %common.exit, label %14

14:                                               ; preds = %9
  store ptr @error, ptr %0, align 8, !tbaa !3
  br label %common.exit

common.exit:                                      ; preds = %14, %9, %5, %8, %6
  %.0 = phi i32 [ 39, %8 ], [ 46, %6 ], [ 39, %5 ], [ -1, %14 ], [ 59, %9 ]
  ret i32 %.0
}